target datalayout = "e-m:e-p270:32:32-p271:32:32-p272:64:64-i64:64-i128:128-f80:128-n8:16:32:64-S128"
target triple = "x86_64-unknown-linux-gnu"

%struct.winsize = type { i16, i16, i16, i16 }

@ws = internal global %struct.winsize zeroinitializer, align 2
@.str.17 = private unnamed_addr constant [32 x i8] c"\0AYour memory passed this test.\0A\00", align 1
@.str.18 = private unnamed_addr constant [63 x i8] c"Please if you are still in doubt use the following two tools:\0A\00", align 1
@.str.19 = private unnamed_addr constant [41 x i8] c"1) memtest86: http://www.memtest86.com/\0A\00", align 1
@.str.20 = private unnamed_addr constant [53 x i8] c"2) memtester: http://pyropus.ca/software/memtester/\0A\00", align 1

; Function Attrs: nounwind uwtable
define dso_local void @memtest(i64 noundef %megabytes, i32 noundef %passes) #0 {
entry:
  %megabytes.addr = alloca i64, align 8
  %passes.addr = alloca i32, align 4
  store i64 %megabytes, ptr %megabytes.addr, align 8
  store i32 %passes, ptr %passes.addr, align 4
  %call = call i32 (i32, i64, ...) @ioctl(i32 noundef 1, i64 noundef 21523, ptr noundef @ws) #10
  %cmp = icmp eq i32 %call, -1
  br i1 %cmp, label %if.then, label %if.end

if.then:                                          ; preds = %entry
  store i16 80, ptr getelementptr inbounds (%struct.winsize, ptr @ws, i32 0, i32 1), align 2
  store i16 20, ptr @ws, align 2
  br label %if.end

if.end:                                           ; preds = %if.then, %entry
  %0 = load i64, ptr %megabytes.addr, align 8
  %1 = load i32, ptr %passes.addr, align 4
  call void @memtest_alloc_and_test(i64 noundef %0, i32 noundef %1)
  %call1 = call i32 (ptr, ...) @printf(ptr noundef @.str.17)
  %call2 = call i32 (ptr, ...) @printf(ptr noundef @.str.18)
  %call3 = call i32 (ptr, ...) @printf(ptr noundef @.str.19)
  %call4 = call i32 (ptr, ...) @printf(ptr noundef @.str.20)
  call void @exit(i32 noundef 0) #7
  unreachable
}