; Function Attrs: noreturn nounwind uwtable
define dso_local void @memtest(i64 noundef %megabytes, i32 noundef %passes) local_unnamed_addr #10 {
entry:
  %call = tail call i32 (i32, i64, ...) @ioctl(i32 noundef 1, i64 noundef 21523, ptr noundef nonnull @ws) #14
  %cmp = icmp eq i32 %call, -1
  br i1 %cmp, label %if.then, label %if.end

if.then:                                          ; preds = %entry
  store i16 80, ptr getelementptr inbounds (%struct.winsize, ptr @ws, i64 0, i32 1), align 2
  store i16 20, ptr @ws, align 2
  br label %if.end

if.end:                                           ; preds = %if.then, %entry
  tail call void @memtest_alloc_and_test(i64 noundef %megabytes, i32 noundef %passes)
  %puts = tail call i32 @puts(ptr nonnull dereferenceable(1) @str.1)
  %puts1 = tail call i32 @puts(ptr nonnull dereferenceable(1) @str.2)
  %puts2 = tail call i32 @puts(ptr nonnull dereferenceable(1) @str.3)
  %puts3 = tail call i32 @puts(ptr nonnull dereferenceable(1) @str.4)
  tail call void @exit(i32 noundef 0) #13
  unreachable
}